target datalayout = "e-m:e-p270:32:32-p271:32:32-p272:64:64-i64:64-i128:128-f80:128-n8:16:32:64-S128"
target triple = "x86_64-pc-linux-gnu"

%"struct.llvm::support::detail::packed_endian_specific_integral" = type { %struct.anon }
%struct.anon = type { [4 x i8] }
%"class.llvm::MemoryBufferRef" = type { %"class.llvm::StringRef", %"class.llvm::StringRef" }
%"class.llvm::StringRef" = type { ptr, i64 }
%"class.llvm::object::Binary" = type { ptr, i32, %"class.llvm::MemoryBufferRef" }
%"struct.llvm::support::detail::packed_endian_specific_integral.16" = type { %struct.anon.17 }
%struct.anon.17 = type { [2 x i8] }
%"struct.llvm::support::detail::packed_endian_specific_integral.18" = type { %struct.anon.19 }
%struct.anon.19 = type { [4 x i8] }
%"class.llvm::object::XCOFFObjectFile" = type { %"class.llvm::object::ObjectFile", ptr, ptr, ptr, ptr, %"struct.llvm::object::XCOFFStringTable" }
%"class.llvm::object::ObjectFile" = type { %"class.llvm::object::SymbolicFile" }
%"class.llvm::object::SymbolicFile" = type { %"class.llvm::object::Binary" }
%"struct.llvm::object::XCOFFStringTable" = type { i32, ptr }
%"struct.llvm::object::XCOFFFileHeader32" = type { %"struct.llvm::support::detail::packed_endian_specific_integral.16", %"struct.llvm::support::detail::packed_endian_specific_integral.16", %"struct.llvm::support::detail::packed_endian_specific_integral.18", %"struct.llvm::support::detail::packed_endian_specific_integral", %"struct.llvm::support::detail::packed_endian_specific_integral.18", %"struct.llvm::support::detail::packed_endian_specific_integral.16", %"struct.llvm::support::detail::packed_endian_specific_integral.16" }

; Function Attrs: mustprogress nounwind uwtable
define linkonce_odr hidden noundef i32 @_ZN4llvm8byteswapIivEET_S1_(i32 noundef %0) #0 comdat {
  %2 = alloca i32, align 4
  %3 = alloca i32, align 4
  store i32 %0, ptr %2, align 4
  %4 = load i32, ptr %2, align 4
  store i32 %4, ptr %3, align 4
  %5 = load i32, ptr %3, align 4
  %6 = call i32 @llvm.bswap.i32(i32 %5)
  ret i32 %6
}

; Function Attrs: mustprogress nounwind uwtable
define linkonce_odr hidden noundef i32 @_ZN4llvm3sys15getSwappedBytesEi(i32 noundef %0) #0 comdat {
  %2 = alloca i32, align 4
  store i32 %0, ptr %2, align 4
  %3 = load i32, ptr %2, align 4
  %4 = call noundef i32 @_ZN4llvm8byteswapIivEET_S1_(i32 noundef %3) #12
  ret i32 %4
}

; Function Attrs: mustprogress nounwind uwtable
define linkonce_odr hidden void @_ZN4llvm3sys13swapByteOrderIiEEvRT_(ptr noundef nonnull align 4 dereferenceable(4) %0) #0 comdat {
  %2 = alloca ptr, align 8
  store ptr %0, ptr %2, align 8
  %3 = load ptr, ptr %2, align 8
  %4 = load i32, ptr %3, align 4
  %5 = call noundef i32 @_ZN4llvm3sys15getSwappedBytesEi(i32 noundef %4)
  %6 = load ptr, ptr %2, align 8
  store i32 %5, ptr %6, align 4
  ret void
}

; Function Attrs: mustprogress nounwind uwtable
define linkonce_odr hidden noundef i32 @_ZN4llvm7support6endian9byte_swapIiEET_S3_NS_10endiannessE(i32 noundef %0, i32 noundef %1) #0 comdat {
  %3 = alloca i32, align 4
  %4 = alloca i32, align 4
  store i32 %0, ptr %3, align 4
  store i32 %1, ptr %4, align 4
  %5 = load i32, ptr %4, align 4
  %6 = icmp ne i32 %5, 1
  br i1 %6, label %7, label %8

7:                                                ; preds = %2
  call void @_ZN4llvm3sys13swapByteOrderIiEEvRT_(ptr noundef nonnull align 4 dereferenceable(4) %3)
  br label %8

8:                                                ; preds = %7, %2
  %9 = load i32, ptr %3, align 4
  ret i32 %9
}

; Function Attrs: mustprogress nounwind uwtable
define linkonce_odr hidden noundef i32 @_ZN4llvm7support6endian4readIiLm1EEET_PKvNS_10endiannessE(ptr noundef %0, i32 noundef %1) #0 comdat {
  %3 = alloca ptr, align 8
  %4 = alloca i32, align 4
  %5 = alloca i32, align 4
  store ptr %0, ptr %3, align 8
  store i32 %1, ptr %4, align 4
  %6 = load ptr, ptr %3, align 8
  call void @llvm.assume(i1 true) [ "align"(ptr %6, i64 1) ]
  call void @llvm.memcpy.p0.p0.i64(ptr align 4 %5, ptr align 1 %6, i64 4, i1 false)
  %7 = load i32, ptr %5, align 4
  %8 = load i32, ptr %4, align 4
  %9 = call noundef i32 @_ZN4llvm7support6endian9byte_swapIiEET_S3_NS_10endiannessE(i32 noundef %7, i32 noundef %8)
  ret i32 %9
}

; Function Attrs: mustprogress nounwind uwtable
define linkonce_odr hidden noundef i32 @_ZN4llvm7support6endian4readIiLNS_10endiannessE0ELm1EEET_PKv(ptr noundef %0) #0 comdat {
  %2 = alloca ptr, align 8
  store ptr %0, ptr %2, align 8
  %3 = load ptr, ptr %2, align 8
  %4 = call noundef i32 @_ZN4llvm7support6endian4readIiLm1EEET_PKvNS_10endiannessE(ptr noundef %3, i32 noundef 0)
  ret i32 %4
}

; Function Attrs: mustprogress nounwind uwtable
define linkonce_odr hidden noundef i32 @_ZNK4llvm7support6detail31packed_endian_specific_integralIiLNS_10endiannessE0ELm1ELm1EEcviEv(ptr noundef nonnull align 1 dereferenceable(4) %0) #0 comdat align 2 {
  %2 = alloca ptr, align 8
  store ptr %0, ptr %2, align 8
  %3 = load ptr, ptr %2, align 8
  %4 = getelementptr inbounds nuw %"struct.llvm::support::detail::packed_endian_specific_integral.18", ptr %3, i32 0, i32 0
  %5 = getelementptr inbounds nuw %struct.anon.19, ptr %4, i32 0, i32 0
  %6 = getelementptr inbounds [4 x i8], ptr %5, i64 0, i64 0
  %7 = call noundef i32 @_ZN4llvm7support6endian4readIiLNS_10endiannessE0ELm1EEET_PKv(ptr noundef %6)
  ret i32 %7
}

; Function Attrs: mustprogress nounwind uwtable
define dso_local noundef ptr @_ZNK4llvm6object15XCOFFObjectFile12fileHeader32Ev(ptr noundef nonnull align 8 dereferenceable(96) %0) #0 align 2 {
  %2 = alloca ptr, align 8
  store ptr %0, ptr %2, align 8
  %3 = load ptr, ptr %2, align 8
  %4 = getelementptr inbounds nuw %"class.llvm::object::XCOFFObjectFile", ptr %3, i32 0, i32 1
  %5 = load ptr, ptr %4, align 8
  ret ptr %5
}

; Function Attrs: mustprogress nounwind uwtable
define dso_local noundef i32 @_ZNK4llvm6object15XCOFFObjectFile34getRawNumberOfSymbolTableEntries32Ev(ptr noundef nonnull align 8 dereferenceable(96) %0) #0 align 2 {
  %2 = alloca ptr, align 8
  store ptr %0, ptr %2, align 8
  %3 = load ptr, ptr %2, align 8
  %4 = call noundef ptr @_ZNK4llvm6object15XCOFFObjectFile12fileHeader32Ev(ptr noundef nonnull align 8 dereferenceable(96) %3)
  %5 = getelementptr inbounds nuw %"struct.llvm::object::XCOFFFileHeader32", ptr %4, i32 0, i32 4
  %6 = call noundef i32 @_ZNK4llvm7support6detail31packed_endian_specific_integralIiLNS_10endiannessE0ELm1ELm1EEcviEv(ptr noundef nonnull align 1 dereferenceable(4) %5)
  ret i32 %6
}